target datalayout = "e-m:e-p270:32:32-p271:32:32-p272:64:64-i64:64-i128:128-f80:128-n8:16:32:64-S128"
target triple = "x86_64-pc-linux-gnu"

%struct.Vec_Int_t_ = type { i32, i32, ptr }
%struct.Wln_Ntk_t_ = type { ptr, ptr, i32, %struct.Vec_Int_t_, %struct.Vec_Int_t_, %struct.Vec_Int_t_, %struct.Vec_Int_t_, ptr, %struct.Vec_Int_t_, ptr, %struct.Vec_Int_t_, %struct.Vec_Int_t_, ptr, %struct.Vec_Str_t_, i32, %struct.Vec_Int_t_, %struct.Vec_Int_t_, %struct.Vec_Int_t_, %struct.Vec_Int_t_, %struct.Vec_Int_t_, %struct.Vec_Int_t_, %struct.Vec_Int_t_, %struct.Vec_Int_t_, ptr, [99 x i32], [99 x i32] }
%struct.Vec_Str_t_ = type { i32, i32, ptr }
%struct.Wln_Vec_t_ = type { i32, i32, %union.anon }
%union.anon = type { [1 x ptr] }

@.str.9 = private unnamed_addr constant [29 x i8] c"Updating delay %5d -> %5d : \00", align 1

; Function Attrs: inlinehint nounwind uwtable
define internal i32 @Wln_ObjType(ptr noundef %0, i32 noundef %1) #2 {
  %3 = alloca ptr, align 8
  %4 = alloca i32, align 4
  store ptr %0, ptr %3, align 8, !tbaa !18
  store i32 %1, ptr %4, align 4, !tbaa !8
  %5 = load ptr, ptr %3, align 8, !tbaa !18
  %6 = getelementptr inbounds nuw %struct.Wln_Ntk_t_, ptr %5, i32 0, i32 6
  %7 = load i32, ptr %4, align 4, !tbaa !8
  %8 = call i32 @Vec_IntEntry(ptr noundef %6, i32 noundef %7)
  ret i32 %8
}

; Function Attrs: inlinehint nounwind uwtable
define internal void @Wln_ObjSetTravIdCurrent(ptr noundef %0, i32 noundef %1) #2 {
  %3 = alloca ptr, align 8
  %4 = alloca i32, align 4
  store ptr %0, ptr %3, align 8, !tbaa !18
  store i32 %1, ptr %4, align 4, !tbaa !8
  %5 = load ptr, ptr %3, align 8, !tbaa !18
  %6 = getelementptr inbounds nuw %struct.Wln_Ntk_t_, ptr %5, i32 0, i32 15
  %7 = load i32, ptr %4, align 4, !tbaa !8
  %8 = load ptr, ptr %3, align 8, !tbaa !18
  %9 = getelementptr inbounds nuw %struct.Wln_Ntk_t_, ptr %8, i32 0, i32 14
  %10 = load i32, ptr %9, align 8, !tbaa !90
  call void @Vec_IntWriteEntry(ptr noundef %6, i32 noundef %7, i32 noundef %10)
  ret void
}

; Function Attrs: inlinehint nounwind uwtable
define internal void @Vec_IntWriteEntry(ptr noundef %0, i32 noundef %1, i32 noundef %2) #2 {
  %4 = alloca ptr, align 8
  %5 = alloca i32, align 4
  %6 = alloca i32, align 4
  store ptr %0, ptr %4, align 8, !tbaa !29
  store i32 %1, ptr %5, align 4, !tbaa !8
  store i32 %2, ptr %6, align 4, !tbaa !8
  %7 = load i32, ptr %6, align 4, !tbaa !8
  %8 = load ptr, ptr %4, align 8, !tbaa !29
  %9 = getelementptr inbounds nuw %struct.Vec_Int_t_, ptr %8, i32 0, i32 2
  %10 = load ptr, ptr %9, align 8, !tbaa !31
  %11 = load i32, ptr %5, align 4, !tbaa !8
  %12 = sext i32 %11 to i64
  %13 = getelementptr inbounds i32, ptr %10, i64 %12
  store i32 %7, ptr %13, align 4, !tbaa !8
  ret void
}

; Function Attrs: inlinehint nounwind uwtable
define internal i32 @Vec_IntEntry(ptr noundef %0, i32 noundef %1) #2 {
  %3 = alloca ptr, align 8
  %4 = alloca i32, align 4
  store ptr %0, ptr %3, align 8, !tbaa !29
  store i32 %1, ptr %4, align 4, !tbaa !8
  %5 = load ptr, ptr %3, align 8, !tbaa !29
  %6 = getelementptr inbounds nuw %struct.Vec_Int_t_, ptr %5, i32 0, i32 2
  %7 = load ptr, ptr %6, align 8, !tbaa !31
  %8 = load i32, ptr %4, align 4, !tbaa !8
  %9 = sext i32 %8 to i64
  %10 = getelementptr inbounds i32, ptr %7, i64 %9
  %11 = load i32, ptr %10, align 4, !tbaa !8
  ret i32 %11
}

; Function Attrs: inlinehint nounwind uwtable
define internal void @Wln_ObjSetTravIdPrevious(ptr noundef %0, i32 noundef %1) #2 {
  %3 = alloca ptr, align 8
  %4 = alloca i32, align 4
  store ptr %0, ptr %3, align 8, !tbaa !18
  store i32 %1, ptr %4, align 4, !tbaa !8
  %5 = load ptr, ptr %3, align 8, !tbaa !18
  %6 = getelementptr inbounds nuw %struct.Wln_Ntk_t_, ptr %5, i32 0, i32 15
  %7 = load i32, ptr %4, align 4, !tbaa !8
  %8 = load ptr, ptr %3, align 8, !tbaa !18
  %9 = getelementptr inbounds nuw %struct.Wln_Ntk_t_, ptr %8, i32 0, i32 14
  %10 = load i32, ptr %9, align 8, !tbaa !90
  %11 = sub nsw i32 %10, 1
  call void @Vec_IntWriteEntry(ptr noundef %6, i32 noundef %7, i32 noundef %11)
  ret void
}

; Function Attrs: inlinehint nounwind uwtable
define internal i32 @Wln_ObjFanin(ptr noundef %0, i32 noundef %1, i32 noundef %2) #2 {
  %4 = alloca ptr, align 8
  %5 = alloca i32, align 4
  %6 = alloca i32, align 4
  store ptr %0, ptr %4, align 8, !tbaa !18
  store i32 %1, ptr %5, align 4, !tbaa !8
  store i32 %2, ptr %6, align 4, !tbaa !8
  %7 = load ptr, ptr %4, align 8, !tbaa !18
  %8 = load i32, ptr %5, align 4, !tbaa !8
  %9 = call i32 @Wln_ObjFaninNum(ptr noundef %7, i32 noundef %8)
  %10 = icmp sgt i32 %9, 2
  br i1 %10, label %11, label %25

11:                                               ; preds = %3
  %12 = load ptr, ptr %4, align 8, !tbaa !18
  %13 = getelementptr inbounds nuw %struct.Wln_Ntk_t_, ptr %12, i32 0, i32 7
  %14 = load ptr, ptr %13, align 8, !tbaa !19
  %15 = load i32, ptr %5, align 4, !tbaa !8
  %16 = sext i32 %15 to i64
  %17 = getelementptr inbounds %struct.Wln_Vec_t_, ptr %14, i64 %16
  %18 = getelementptr inbounds nuw %struct.Wln_Vec_t_, ptr %17, i32 0, i32 2
  %19 = getelementptr inbounds [1 x ptr], ptr %18, i64 0, i64 0
  %20 = load ptr, ptr %19, align 8, !tbaa !47
  %21 = load i32, ptr %6, align 4, !tbaa !8
  %22 = sext i32 %21 to i64
  %23 = getelementptr inbounds i32, ptr %20, i64 %22
  %24 = load i32, ptr %23, align 4, !tbaa !8
  br label %37

25:                                               ; preds = %3
  %26 = load ptr, ptr %4, align 8, !tbaa !18
  %27 = getelementptr inbounds nuw %struct.Wln_Ntk_t_, ptr %26, i32 0, i32 7
  %28 = load ptr, ptr %27, align 8, !tbaa !19
  %29 = load i32, ptr %5, align 4, !tbaa !8
  %30 = sext i32 %29 to i64
  %31 = getelementptr inbounds %struct.Wln_Vec_t_, ptr %28, i64 %30
  %32 = getelementptr inbounds nuw %struct.Wln_Vec_t_, ptr %31, i32 0, i32 2
  %33 = load i32, ptr %6, align 4, !tbaa !8
  %34 = sext i32 %33 to i64
  %35 = getelementptr inbounds [2 x i32], ptr %32, i64 0, i64 %34
  %36 = load i32, ptr %35, align 4, !tbaa !47
  br label %37

37:                                               ; preds = %25, %11
  %38 = phi i32 [ %24, %11 ], [ %36, %25 ]
  ret i32 %38
}

; Function Attrs: inlinehint nounwind uwtable
define internal i32 @Wln_ObjFaninNum(ptr noundef %0, i32 noundef %1) #2 {
  %3 = alloca ptr, align 8
  %4 = alloca i32, align 4
  store ptr %0, ptr %3, align 8, !tbaa !18
  store i32 %1, ptr %4, align 4, !tbaa !8
  %5 = load ptr, ptr %3, align 8, !tbaa !18
  %6 = getelementptr inbounds nuw %struct.Wln_Ntk_t_, ptr %5, i32 0, i32 7
  %7 = load ptr, ptr %6, align 8, !tbaa !19
  %8 = load i32, ptr %4, align 4, !tbaa !8
  %9 = sext i32 %8 to i64
  %10 = getelementptr inbounds %struct.Wln_Vec_t_, ptr %7, i64 %9
  %11 = getelementptr inbounds nuw %struct.Wln_Vec_t_, ptr %10, i32 0, i32 1
  %12 = load i32, ptr %11, align 4, !tbaa !27
  ret i32 %12
}

; Function Attrs: inlinehint nounwind uwtable
define internal i32 @Wln_ObjIsFf(ptr noundef %0, i32 noundef %1) #2 {
  %3 = alloca ptr, align 8
  %4 = alloca i32, align 4
  store ptr %0, ptr %3, align 8, !tbaa !18
  store i32 %1, ptr %4, align 4, !tbaa !8
  %5 = load ptr, ptr %3, align 8, !tbaa !18
  %6 = load i32, ptr %4, align 4, !tbaa !8
  %7 = call i32 @Wln_ObjType(ptr noundef %5, i32 noundef %6)
  %8 = icmp eq i32 %7, 89
  %9 = zext i1 %8 to i32
  ret i32 %9
}

; Function Attrs: inlinehint nounwind uwtable
define internal i32 @Wln_ObjIsCio(ptr noundef %0, i32 noundef %1) #2 {
  %3 = alloca ptr, align 8
  %4 = alloca i32, align 4
  store ptr %0, ptr %3, align 8, !tbaa !18
  store i32 %1, ptr %4, align 4, !tbaa !8
  %5 = load ptr, ptr %3, align 8, !tbaa !18
  %6 = load i32, ptr %4, align 4, !tbaa !8
  %7 = call i32 @Wln_ObjType(ptr noundef %5, i32 noundef %6)
  %8 = icmp eq i32 %7, 3
  br i1 %8, label %14, label %9

9:                                                ; preds = %2
  %10 = load ptr, ptr %3, align 8, !tbaa !18
  %11 = load i32, ptr %4, align 4, !tbaa !8
  %12 = call i32 @Wln_ObjType(ptr noundef %10, i32 noundef %11)
  %13 = icmp eq i32 %12, 4
  br label %14

14:                                               ; preds = %9, %2
  %15 = phi i1 [ true, %2 ], [ %13, %9 ]
  %16 = zext i1 %15 to i32
  ret i32 %16
}

; Function Attrs: inlinehint nounwind uwtable
define internal i32 @Wln_ObjIsTravIdCurrent(ptr noundef %0, i32 noundef %1) #2 {
  %3 = alloca ptr, align 8
  %4 = alloca i32, align 4
  store ptr %0, ptr %3, align 8, !tbaa !18
  store i32 %1, ptr %4, align 4, !tbaa !8
  %5 = load ptr, ptr %3, align 8, !tbaa !18
  %6 = getelementptr inbounds nuw %struct.Wln_Ntk_t_, ptr %5, i32 0, i32 15
  %7 = load i32, ptr %4, align 4, !tbaa !8
  %8 = call i32 @Vec_IntEntry(ptr noundef %6, i32 noundef %7)
  %9 = load ptr, ptr %3, align 8, !tbaa !18
  %10 = getelementptr inbounds nuw %struct.Wln_Ntk_t_, ptr %9, i32 0, i32 14
  %11 = load i32, ptr %10, align 8, !tbaa !90
  %12 = icmp eq i32 %8, %11
  %13 = zext i1 %12 to i32
  ret i32 %13
}

; Function Attrs: inlinehint nounwind uwtable
define internal i32 @Wln_ObjIsTravIdPrevious(ptr noundef %0, i32 noundef %1) #2 {
  %3 = alloca ptr, align 8
  %4 = alloca i32, align 4
  store ptr %0, ptr %3, align 8, !tbaa !18
  store i32 %1, ptr %4, align 4, !tbaa !8
  %5 = load ptr, ptr %3, align 8, !tbaa !18
  %6 = getelementptr inbounds nuw %struct.Wln_Ntk_t_, ptr %5, i32 0, i32 15
  %7 = load i32, ptr %4, align 4, !tbaa !8
  %8 = call i32 @Vec_IntEntry(ptr noundef %6, i32 noundef %7)
  %9 = load ptr, ptr %3, align 8, !tbaa !18
  %10 = getelementptr inbounds nuw %struct.Wln_Ntk_t_, ptr %9, i32 0, i32 14
  %11 = load i32, ptr %10, align 8, !tbaa !90
  %12 = sub nsw i32 %11, 1
  %13 = icmp eq i32 %8, %12
  %14 = zext i1 %13 to i32
  ret i32 %14
}

; Function Attrs: nounwind uwtable
define i32 @Wln_RetMarkPaths_rec(ptr noundef %0, i32 noundef %1, i32 noundef %2) #0 {
  %4 = alloca i32, align 4
  %5 = alloca ptr, align 8
  %6 = alloca i32, align 4
  %7 = alloca i32, align 4
  %8 = alloca i32, align 4
  %9 = alloca i32, align 4
  %10 = alloca i32, align 4
  %11 = alloca i32, align 4
  store ptr %0, ptr %5, align 8, !tbaa !18
  store i32 %1, ptr %6, align 4, !tbaa !8
  store i32 %2, ptr %7, align 4, !tbaa !8
  call void @llvm.lifetime.start.p0(i64 4, ptr %8) #11
  call void @llvm.lifetime.start.p0(i64 4, ptr %9) #11
  call void @llvm.lifetime.start.p0(i64 4, ptr %10) #11
  store i32 1, ptr %10, align 4, !tbaa !8
  %12 = load ptr, ptr %5, align 8, !tbaa !18
  %13 = load i32, ptr %6, align 4, !tbaa !8
  %14 = call i32 @Wln_ObjIsTravIdPrevious(ptr noundef %12, i32 noundef %13)
  %15 = icmp ne i32 %14, 0
  br i1 %15, label %16, label %17

16:                                               ; preds = %3
  store i32 1, ptr %4, align 4
  store i32 1, ptr %11, align 4
  br label %97

17:                                               ; preds = %3
  %18 = load ptr, ptr %5, align 8, !tbaa !18
  %19 = load i32, ptr %6, align 4, !tbaa !8
  %20 = call i32 @Wln_ObjIsTravIdCurrent(ptr noundef %18, i32 noundef %19)
  %21 = icmp ne i32 %20, 0
  br i1 %21, label %22, label %23

22:                                               ; preds = %17
  store i32 0, ptr %4, align 4
  store i32 1, ptr %11, align 4
  br label %97

23:                                               ; preds = %17
  %24 = load ptr, ptr %5, align 8, !tbaa !18
  %25 = load i32, ptr %6, align 4, !tbaa !8
  %26 = call i32 @Wln_ObjIsCio(ptr noundef %24, i32 noundef %25)
  %27 = icmp ne i32 %26, 0
  br i1 %27, label %33, label %28

28:                                               ; preds = %23
  %29 = load ptr, ptr %5, align 8, !tbaa !18
  %30 = load i32, ptr %6, align 4, !tbaa !8
  %31 = call i32 @Wln_ObjIsFf(ptr noundef %29, i32 noundef %30)
  %32 = icmp ne i32 %31, 0
  br i1 %32, label %33, label %34

33:                                               ; preds = %28, %23
  store i32 0, ptr %4, align 4
  store i32 1, ptr %11, align 4
  br label %97

34:                                               ; preds = %28
  store i32 0, ptr %8, align 4, !tbaa !8
  br label %35

35:                                               ; preds = %60, %34
  %36 = load i32, ptr %8, align 4, !tbaa !8
  %37 = load ptr, ptr %5, align 8, !tbaa !18
  %38 = load i32, ptr %6, align 4, !tbaa !8
  %39 = call i32 @Wln_ObjFaninNum(ptr noundef %37, i32 noundef %38)
  %40 = icmp slt i32 %36, %39
  br i1 %40, label %41, label %46

41:                                               ; preds = %35
  %42 = load ptr, ptr %5, align 8, !tbaa !18
  %43 = load i32, ptr %6, align 4, !tbaa !8
  %44 = load i32, ptr %8, align 4, !tbaa !8
  %45 = call i32 @Wln_ObjFanin(ptr noundef %42, i32 noundef %43, i32 noundef %44)
  store i32 %45, ptr %9, align 4, !tbaa !8
  br label %46

46:                                               ; preds = %41, %35
  %47 = phi i1 [ false, %35 ], [ true, %41 ]
  br i1 %47, label %48, label %63

48:                                               ; preds = %46
  %49 = load i32, ptr %9, align 4, !tbaa !8
  %50 = icmp ne i32 %49, 0
  br i1 %50, label %52, label %51

51:                                               ; preds = %48
  br label %59

52:                                               ; preds = %48
  %53 = load ptr, ptr %5, align 8, !tbaa !18
  %54 = load i32, ptr %9, align 4, !tbaa !8
  %55 = load i32, ptr %7, align 4, !tbaa !8
  %56 = call i32 @Wln_RetMarkPaths_rec(ptr noundef %53, i32 noundef %54, i32 noundef %55)
  %57 = load i32, ptr %10, align 4, !tbaa !8
  %58 = and i32 %57, %56
  store i32 %58, ptr %10, align 4, !tbaa !8
  br label %59

59:                                               ; preds = %52, %51
  br label %60

60:                                               ; preds = %59
  %61 = load i32, ptr %8, align 4, !tbaa !8
  %62 = add nsw i32 %61, 1
  store i32 %62, ptr %8, align 4, !tbaa !8
  br label %35, !llvm.loop !91

63:                                               ; preds = %46
  %64 = load i32, ptr %10, align 4, !tbaa !8
  %65 = icmp ne i32 %64, 0
  br i1 %65, label %66, label %94

66:                                               ; preds = %63
  %67 = load ptr, ptr %5, align 8, !tbaa !18
  %68 = load i32, ptr %6, align 4, !tbaa !8
  call void @Wln_ObjSetTravIdPrevious(ptr noundef %67, i32 noundef %68)
  %69 = load ptr, ptr %5, align 8, !tbaa !18
  %70 = getelementptr inbounds nuw %struct.Wln_Ntk_t_, ptr %69, i32 0, i32 11
  %71 = load i32, ptr %6, align 4, !tbaa !8
  %72 = call i32 @Vec_IntEntry(ptr noundef %70, i32 noundef %71)
  %73 = icmp sgt i32 %72, 0
  br i1 %73, label %74, label %93

74:                                               ; preds = %66
  %75 = load i32, ptr %7, align 4, !tbaa !8
  %76 = icmp ne i32 %75, 0
  br i1 %76, label %77, label %83

77:                                               ; preds = %74
  %78 = load ptr, ptr %5, align 8, !tbaa !18
  %79 = getelementptr inbounds nuw %struct.Wln_Ntk_t_, ptr %78, i32 0, i32 11
  %80 = load i32, ptr %6, align 4, !tbaa !8
  %81 = call i32 @Vec_IntEntry(ptr noundef %79, i32 noundef %80)
  %82 = call i32 (ptr, ...) @printf(ptr noundef @.str.9, i32 noundef %81, i32 noundef 1)
  br label %83

83:                                               ; preds = %77, %74
  %84 = load i32, ptr %7, align 4, !tbaa !8
  %85 = icmp ne i32 %84, 0
  br i1 %85, label %86, label %89

86:                                               ; preds = %83
  %87 = load ptr, ptr %5, align 8, !tbaa !18
  %88 = load i32, ptr %6, align 4, !tbaa !8
  call void @Wln_ObjPrint(ptr noundef %87, i32 noundef %88)
  br label %89

89:                                               ; preds = %86, %83
  %90 = load ptr, ptr %5, align 8, !tbaa !18
  %91 = getelementptr inbounds nuw %struct.Wln_Ntk_t_, ptr %90, i32 0, i32 11
  %92 = load i32, ptr %6, align 4, !tbaa !8
  call void @Vec_IntWriteEntry(ptr noundef %91, i32 noundef %92, i32 noundef 1)
  br label %93

93:                                               ; preds = %89, %66
  store i32 1, ptr %4, align 4
  store i32 1, ptr %11, align 4
  br label %97

94:                                               ; preds = %63
  %95 = load ptr, ptr %5, align 8, !tbaa !18
  %96 = load i32, ptr %6, align 4, !tbaa !8
  call void @Wln_ObjSetTravIdCurrent(ptr noundef %95, i32 noundef %96)
  store i32 0, ptr %4, align 4
  store i32 1, ptr %11, align 4
  br label %97

97:                                               ; preds = %94, %93, %33, %22, %16
  call void @llvm.lifetime.end.p0(i64 4, ptr %10) #11
  call void @llvm.lifetime.end.p0(i64 4, ptr %9) #11
  call void @llvm.lifetime.end.p0(i64 4, ptr %8) #11
  %98 = load i32, ptr %4, align 4
  ret i32 %98
}