; Function Attrs: nounwind uwtable
define range(i32 0, 2) i32 @Wln_RetMarkPaths_rec(ptr noundef %0, i32 noundef %1, i32 noundef %2) local_unnamed_addr #4 {
  %4 = getelementptr i8, ptr %0, i64 176
  %.val56 = load i32, ptr %4, align 8, !tbaa !84
  %5 = getelementptr i8, ptr %0, i64 192
  %.val57 = load ptr, ptr %5, align 8, !tbaa !12
  %6 = sext i32 %1 to i64
  %7 = getelementptr inbounds i32, ptr %.val57, i64 %6
  %8 = load i32, ptr %7, align 4, !tbaa !13
  %9 = add nsw i32 %.val56, -1
  %.not = icmp eq i32 %8, %9
  br i1 %.not, label %48, label %10

10:                                               ; preds = %3
  %.not60 = icmp eq i32 %8, %.val56
  br i1 %.not60, label %48, label %11

11:                                               ; preds = %10
  %12 = getelementptr i8, ptr %0, i64 80
  %.val50 = load ptr, ptr %12, align 8, !tbaa !12
  %13 = getelementptr inbounds i32, ptr %.val50, i64 %6
  %14 = load i32, ptr %13, align 4, !tbaa !13
  switch i32 %14, label %.preheader [
    i32 89, label %48
    i32 4, label %48
    i32 3, label %48
  ]

.preheader:                                       ; preds = %11
  %15 = getelementptr i8, ptr %0, i64 88
  %.val4762 = load ptr, ptr %15, align 8, !tbaa !14
  %16 = getelementptr inbounds %struct.Wln_Vec_t_, ptr %.val4762, i64 %6, i32 1
  %17 = load i32, ptr %16, align 4, !tbaa !22
  %18 = icmp sgt i32 %17, 0
  br i1 %18, label %.lr.ph, label %.critedge.thread

.lr.ph:                                           ; preds = %.preheader, %31
  %.val4767 = phi ptr [ %.val47, %31 ], [ %.val4762, %.preheader ]
  %indvars.iv = phi i64 [ %indvars.iv.next, %31 ], [ 0, %.preheader ]
  %19 = phi i32 [ %33, %31 ], [ %17, %.preheader ]
  %.064 = phi i32 [ %.1, %31 ], [ 1, %.preheader ]
  %20 = icmp sgt i32 %19, 2
  %21 = getelementptr inbounds %struct.Wln_Vec_t_, ptr %.val4767, i64 %6, i32 2
  br i1 %20, label %22, label %25

22:                                               ; preds = %.lr.ph
  %23 = load ptr, ptr %21, align 8, !tbaa !39
  %24 = getelementptr inbounds nuw i32, ptr %23, i64 %indvars.iv
  br label %Wln_ObjFanin.exit

25:                                               ; preds = %.lr.ph
  %26 = getelementptr inbounds nuw [2 x i32], ptr %21, i64 0, i64 %indvars.iv
  br label %Wln_ObjFanin.exit

Wln_ObjFanin.exit:                                ; preds = %22, %25
  %.in.i = phi ptr [ %24, %22 ], [ %26, %25 ]
  %27 = load i32, ptr %.in.i, align 4, !tbaa !39
  %.not43 = icmp eq i32 %27, 0
  br i1 %.not43, label %31, label %28

28:                                               ; preds = %Wln_ObjFanin.exit
  %29 = tail call i32 @Wln_RetMarkPaths_rec(ptr noundef nonnull %0, i32 noundef %27, i32 noundef %2)
  %30 = and i32 %29, %.064
  %.val47.pre = load ptr, ptr %15, align 8, !tbaa !14
  br label %31

31:                                               ; preds = %28, %Wln_ObjFanin.exit
  %.val47 = phi ptr [ %.val47.pre, %28 ], [ %.val4767, %Wln_ObjFanin.exit ]
  %.1 = phi i32 [ %30, %28 ], [ %.064, %Wln_ObjFanin.exit ]
  %indvars.iv.next = add nuw nsw i64 %indvars.iv, 1
  %32 = getelementptr inbounds %struct.Wln_Vec_t_, ptr %.val47, i64 %6, i32 1
  %33 = load i32, ptr %32, align 4, !tbaa !22
  %34 = sext i32 %33 to i64
  %35 = icmp slt i64 %indvars.iv.next, %34
  br i1 %35, label %.lr.ph, label %.critedge, !llvm.loop !87

.critedge:                                        ; preds = %31
  %36 = icmp eq i32 %.1, 0
  br i1 %36, label %46, label %.critedge.thread

.critedge.thread:                                 ; preds = %.preheader, %.critedge
  %.val58 = load i32, ptr %4, align 8, !tbaa !84
  %.val59 = load ptr, ptr %5, align 8, !tbaa !12
  %37 = add nsw i32 %.val58, -1
  %38 = getelementptr inbounds i32, ptr %.val59, i64 %6
  store i32 %37, ptr %38, align 4, !tbaa !13
  %39 = getelementptr i8, ptr %0, i64 144
  %.val46 = load ptr, ptr %39, align 8, !tbaa !12
  %40 = getelementptr inbounds i32, ptr %.val46, i64 %6
  %41 = load i32, ptr %40, align 4, !tbaa !13
  %42 = icmp sgt i32 %41, 0
  br i1 %42, label %43, label %48

43:                                               ; preds = %.critedge.thread
  %.not42 = icmp eq i32 %2, 0
  br i1 %.not42, label %.sink.split, label %44

44:                                               ; preds = %43
  %45 = tail call i32 (ptr, ...) @printf(ptr noundef nonnull dereferenceable(1) @.str.9, i32 noundef %41, i32 noundef 1)
  tail call void @Wln_ObjPrint(ptr noundef nonnull %0, i32 noundef %1) #25
  %.val49.pre = load ptr, ptr %39, align 8, !tbaa !12
  br label %.sink.split

46:                                               ; preds = %.critedge
  %.val54 = load i32, ptr %4, align 8, !tbaa !84
  %.val55 = load ptr, ptr %5, align 8, !tbaa !12
  br label %.sink.split

.sink.split:                                      ; preds = %44, %43, %46
  %.val49.sink = phi ptr [ %.val55, %46 ], [ %.val46, %43 ], [ %.val49.pre, %44 ]
  %.sink = phi i32 [ %.val54, %46 ], [ 1, %43 ], [ 1, %44 ]
  %.035.ph = phi i32 [ 0, %46 ], [ 1, %43 ], [ 1, %44 ]
  %47 = getelementptr inbounds i32, ptr %.val49.sink, i64 %6
  store i32 %.sink, ptr %47, align 4, !tbaa !13
  br label %48

48:                                               ; preds = %.sink.split, %11, %11, %11, %.critedge.thread, %10, %3
  %.035 = phi i32 [ 1, %3 ], [ 0, %10 ], [ 0, %11 ], [ 1, %.critedge.thread ], [ 0, %11 ], [ 0, %11 ], [ %.035.ph, %.sink.split ]
  ret i32 %.035
}